; Function Attrs: mustprogress uwtable
define void @_ZN2mu6Parser8InitOprtEv(ptr noundef nonnull align 8 dereferenceable(596) %0) unnamed_addr #1 align 2 personality ptr @__gxx_personality_v0 {
  %2 = alloca %"class.std::__cxx11::basic_string", align 8
  %3 = alloca %"class.std::allocator", align 1
  %4 = alloca %"class.std::__cxx11::basic_string", align 8
  %5 = alloca %"class.std::allocator", align 1
  call void @_ZNSaIcEC1Ev(ptr noundef nonnull align 1 dereferenceable(1) %3) #12
  invoke void @_ZNSt7__cxx1112basic_stringIcSt11char_traitsIcESaIcEEC1EPKcRKS3_(ptr noundef nonnull align 8 dereferenceable(32) %2, ptr noundef nonnull @.str.39, ptr noundef nonnull align 1 dereferenceable(1) %3)
          to label %6 unwind label %10

6:                                                ; preds = %1
  invoke void @_ZN2mu10ParserBase15DefineInfixOprtERKNSt7__cxx1112basic_stringIcSt11char_traitsIcESaIcEEEPFddEib(ptr noundef nonnull align 8 dereferenceable(596) %0, ptr noundef nonnull align 8 dereferenceable(32) %2, ptr noundef nonnull @_ZN2mu8MathImplIdE10UnaryMinusEd, i32 noundef 6, i1 noundef zeroext true)
          to label %7 unwind label %12

7:                                                ; preds = %6
  call void @_ZNSt7__cxx1112basic_stringIcSt11char_traitsIcESaIcEED1Ev(ptr noundef nonnull align 8 dereferenceable(32) %2) #12
  call void @_ZNSaIcED1Ev(ptr noundef nonnull align 1 dereferenceable(1) %3) #12
  call void @_ZNSaIcEC1Ev(ptr noundef nonnull align 1 dereferenceable(1) %5) #12
  invoke void @_ZNSt7__cxx1112basic_stringIcSt11char_traitsIcESaIcEEC1EPKcRKS3_(ptr noundef nonnull align 8 dereferenceable(32) %4, ptr noundef nonnull @.str.40, ptr noundef nonnull align 1 dereferenceable(1) %5)
          to label %8 unwind label %14

8:                                                ; preds = %7
  invoke void @_ZN2mu10ParserBase15DefineInfixOprtERKNSt7__cxx1112basic_stringIcSt11char_traitsIcESaIcEEEPFddEib(ptr noundef nonnull align 8 dereferenceable(596) %0, ptr noundef nonnull align 8 dereferenceable(32) %4, ptr noundef nonnull @_ZN2mu8MathImplIdE9UnaryPlusEd, i32 noundef 6, i1 noundef zeroext true)
          to label %9 unwind label %16

9:                                                ; preds = %8
  call void @_ZNSt7__cxx1112basic_stringIcSt11char_traitsIcESaIcEED1Ev(ptr noundef nonnull align 8 dereferenceable(32) %4) #12
  call void @_ZNSaIcED1Ev(ptr noundef nonnull align 1 dereferenceable(1) %5) #12
  ret void

10:                                               ; preds = %1
  %11 = landingpad { ptr, i32 }
          cleanup
  br label %18

12:                                               ; preds = %6
  %13 = landingpad { ptr, i32 }
          cleanup
  call void @_ZNSt7__cxx1112basic_stringIcSt11char_traitsIcESaIcEED1Ev(ptr noundef nonnull align 8 dereferenceable(32) %2) #12
  br label %18

14:                                               ; preds = %7
  %15 = landingpad { ptr, i32 }
          cleanup
  br label %18

16:                                               ; preds = %8
  %17 = landingpad { ptr, i32 }
          cleanup
  call void @_ZNSt7__cxx1112basic_stringIcSt11char_traitsIcESaIcEED1Ev(ptr noundef nonnull align 8 dereferenceable(32) %4) #12
  br label %18

18:                                               ; preds = %14, %16, %10, %12
  %.sink = phi ptr [ %3, %12 ], [ %3, %10 ], [ %5, %16 ], [ %5, %14 ]
  %.pn6.pn = phi { ptr, i32 } [ %13, %12 ], [ %11, %10 ], [ %17, %16 ], [ %15, %14 ]
  call void @_ZNSaIcED1Ev(ptr noundef nonnull align 1 dereferenceable(1) %.sink) #12
  resume { ptr, i32 } %.pn6.pn
}